target datalayout = "e-m:e-p270:32:32-p271:32:32-p272:64:64-i64:64-i128:128-f80:128-n8:16:32:64-S128"
target triple = "x86_64-pc-linux-gnu"

; Function Attrs: nounwind uwtable
define hidden i32 @png_get_int_32(ptr noundef %0) #0 {
  %2 = alloca i32, align 4
  %3 = alloca ptr, align 8
  %4 = alloca i32, align 4
  store ptr %0, ptr %3, align 8
  %5 = load ptr, ptr %3, align 8
  %6 = load i8, ptr %5, align 1
  %7 = zext i8 %6 to i32
  %8 = shl i32 %7, 24
  %9 = load ptr, ptr %3, align 8
  %10 = getelementptr inbounds i8, ptr %9, i64 1
  %11 = load i8, ptr %10, align 1
  %12 = zext i8 %11 to i32
  %13 = shl i32 %12, 16
  %14 = add i32 %8, %13
  %15 = load ptr, ptr %3, align 8
  %16 = getelementptr inbounds i8, ptr %15, i64 2
  %17 = load i8, ptr %16, align 1
  %18 = zext i8 %17 to i32
  %19 = shl i32 %18, 8
  %20 = add i32 %14, %19
  %21 = load ptr, ptr %3, align 8
  %22 = getelementptr inbounds i8, ptr %21, i64 3
  %23 = load i8, ptr %22, align 1
  %24 = zext i8 %23 to i32
  %25 = add i32 %20, %24
  store i32 %25, ptr %4, align 4
  %26 = load i32, ptr %4, align 4
  %27 = and i32 %26, -2147483648
  %28 = icmp eq i32 %27, 0
  br i1 %28, label %29, label %31

29:                                               ; preds = %1
  %30 = load i32, ptr %4, align 4
  store i32 %30, ptr %2, align 4
  br label %42

31:                                               ; preds = %1
  %32 = load i32, ptr %4, align 4
  %33 = xor i32 %32, -1
  %34 = add i32 %33, 1
  store i32 %34, ptr %4, align 4
  %35 = load i32, ptr %4, align 4
  %36 = and i32 %35, -2147483648
  %37 = icmp eq i32 %36, 0
  br i1 %37, label %38, label %41

38:                                               ; preds = %31
  %39 = load i32, ptr %4, align 4
  %40 = sub nsw i32 0, %39
  store i32 %40, ptr %2, align 4
  br label %42

41:                                               ; preds = %31
  store i32 0, ptr %2, align 4
  br label %42

42:                                               ; preds = %41, %38, %29
  %43 = load i32, ptr %2, align 4
  ret i32 %43
}