; Function Attrs: mustprogress nofree norecurse nosync nounwind willreturn memory(argmem: read) uwtable
define hidden i32 @png_get_int_32(ptr nocapture noundef readonly %0) local_unnamed_addr #2 {
  %2 = load i8, ptr %0, align 1
  %3 = zext i8 %2 to i32
  %4 = shl nuw i32 %3, 24
  %5 = getelementptr inbounds i8, ptr %0, i64 1
  %6 = load i8, ptr %5, align 1
  %7 = zext i8 %6 to i32
  %8 = shl nuw nsw i32 %7, 16
  %9 = getelementptr inbounds i8, ptr %0, i64 2
  %10 = load i8, ptr %9, align 1
  %11 = zext i8 %10 to i32
  %12 = shl nuw nsw i32 %11, 8
  %13 = getelementptr inbounds i8, ptr %0, i64 3
  %14 = load i8, ptr %13, align 1
  %15 = zext i8 %14 to i32
  %16 = or disjoint i32 %8, %15
  %17 = or disjoint i32 %16, %12
  %18 = or disjoint i32 %17, %4
  %notsub = add i32 %18, -1
  %19 = icmp slt i32 %notsub, 0
  %. = select i1 %19, i32 %18, i32 0
  %20 = icmp slt i32 %4, 0
  %.0 = select i1 %20, i32 %., i32 %18
  ret i32 %.0
}